; Function Attrs: mustprogress nounwind uwtable
define internal fastcc void @_ZNSt6vectorIN12_GLOBAL__N_112NestingStateESaIS1_EED2Ev(ptr nocapture noundef nonnull readonly align 8 dereferenceable(24) %0) unnamed_addr #4 align 2 personality ptr @__gxx_personality_v0 {
  %2 = load ptr, ptr %0, align 8
  %3 = getelementptr inbounds i8, ptr %0, i64 8
  %4 = load ptr, ptr %3, align 8
  %.not4.i.i.i = icmp eq ptr %2, %4
  br i1 %.not4.i.i.i, label %_ZSt8_DestroyIPN12_GLOBAL__N_112NestingStateES1_EvT_S3_RSaIT0_E.exit, label %.lr.ph.i.i.i

.lr.ph.i.i.i:                                     ; preds = %1, %_ZSt8_DestroyIN12_GLOBAL__N_112NestingStateEEvPT_.exit.i.i.i
  %.05.i.i.i = phi ptr [ %12, %_ZSt8_DestroyIN12_GLOBAL__N_112NestingStateEEvPT_.exit.i.i.i ], [ %2, %1 ]
  %5 = getelementptr inbounds i8, ptr %.05.i.i.i, i64 112
  %6 = load i8, ptr %5, align 8
  %7 = and i8 %6, 1
  %.not.i.i.i.i.i.i.i.i.i.i = icmp eq i8 %7, 0
  br i1 %.not.i.i.i.i.i.i.i.i.i.i, label %_ZSt8_DestroyIN12_GLOBAL__N_112NestingStateEEvPT_.exit.i.i.i, label %8

8:                                                ; preds = %.lr.ph.i.i.i
  %9 = getelementptr inbounds i8, ptr %.05.i.i.i, i64 80
  store i8 0, ptr %5, align 8
  tail call void @_ZNSt7__cxx1112basic_stringIcSt11char_traitsIcESaIcEED1Ev(ptr noundef nonnull align 8 dereferenceable(32) %9) #17
  br label %_ZSt8_DestroyIN12_GLOBAL__N_112NestingStateEEvPT_.exit.i.i.i

_ZSt8_DestroyIN12_GLOBAL__N_112NestingStateEEvPT_.exit.i.i.i: ; preds = %8, %.lr.ph.i.i.i
  %10 = getelementptr inbounds i8, ptr %.05.i.i.i, i64 8
  %11 = getelementptr inbounds i8, ptr %.05.i.i.i, i64 40
  tail call void @_ZNSt7__cxx1112basic_stringIcSt11char_traitsIcESaIcEED1Ev(ptr noundef nonnull align 8 dereferenceable(32) %11) #17
  tail call void @_ZNSt7__cxx1112basic_stringIcSt11char_traitsIcESaIcEED1Ev(ptr noundef nonnull align 8 dereferenceable(32) %10) #17
  %12 = getelementptr inbounds i8, ptr %.05.i.i.i, i64 120
  %.not.i.i.i = icmp eq ptr %12, %4
  br i1 %.not.i.i.i, label %_ZSt8_DestroyIPN12_GLOBAL__N_112NestingStateES1_EvT_S3_RSaIT0_E.exitthread-pre-split, label %.lr.ph.i.i.i, !llvm.loop !12

_ZSt8_DestroyIPN12_GLOBAL__N_112NestingStateES1_EvT_S3_RSaIT0_E.exitthread-pre-split: ; preds = %_ZSt8_DestroyIN12_GLOBAL__N_112NestingStateEEvPT_.exit.i.i.i
  %.val.pr = load ptr, ptr %0, align 8
  br label %_ZSt8_DestroyIPN12_GLOBAL__N_112NestingStateES1_EvT_S3_RSaIT0_E.exit

_ZSt8_DestroyIPN12_GLOBAL__N_112NestingStateES1_EvT_S3_RSaIT0_E.exit: ; preds = %_ZSt8_DestroyIPN12_GLOBAL__N_112NestingStateES1_EvT_S3_RSaIT0_E.exitthread-pre-split, %1
  %.val = phi ptr [ %.val.pr, %_ZSt8_DestroyIPN12_GLOBAL__N_112NestingStateES1_EvT_S3_RSaIT0_E.exitthread-pre-split ], [ %2, %1 ]
  %.not.i.i = icmp eq ptr %.val, null
  br i1 %.not.i.i, label %_ZNSt12_Vector_baseIN12_GLOBAL__N_112NestingStateESaIS1_EED2Ev.exit, label %13

13:                                               ; preds = %_ZSt8_DestroyIPN12_GLOBAL__N_112NestingStateES1_EvT_S3_RSaIT0_E.exit
  tail call void @_ZdlPv(ptr noundef nonnull %.val) #18
  br label %_ZNSt12_Vector_baseIN12_GLOBAL__N_112NestingStateESaIS1_EED2Ev.exit

_ZNSt12_Vector_baseIN12_GLOBAL__N_112NestingStateESaIS1_EED2Ev.exit: ; preds = %_ZSt8_DestroyIPN12_GLOBAL__N_112NestingStateES1_EvT_S3_RSaIT0_E.exit, %13
  ret void
}